target datalayout = "e-m:e-p270:32:32-p271:32:32-p272:64:64-i64:64-i128:128-f80:128-n8:16:32:64-S128"
target triple = "x86_64-unknown-linux-gnu"

%struct.FLAC__StreamMetadata = type { i32, i32, i32, %union.anon }
%union.anon = type { %struct.FLAC__StreamMetadata_CueSheet }
%struct.FLAC__StreamMetadata_CueSheet = type { [129 x i8], i64, i32, i32, ptr }
%"class.FLAC::Metadata::Prototype" = type <{ ptr, ptr, i8, [7 x i8] }>

; Function Attrs: mustprogress nounwind sspstrong uwtable
define noundef zeroext i1 @_ZNK4FLAC8Metadata9Prototype11get_is_lastEv(ptr noundef nonnull align 8 dereferenceable(17) %this) #5 align 2 {
entry:
  %this.addr = alloca ptr, align 8
  store ptr %this, ptr %this.addr, align 8
  %this1 = load ptr, ptr %this.addr, align 8
  %object_ = getelementptr inbounds %"class.FLAC::Metadata::Prototype", ptr %this1, i32 0, i32 1
  %0 = load ptr, ptr %object_, align 8
  %is_last = getelementptr inbounds %struct.FLAC__StreamMetadata, ptr %0, i32 0, i32 1
  %1 = load i32, ptr %is_last, align 4
  %tobool = icmp ne i32 %1, 0
  ret i1 %tobool
}