; Function Attrs: mustprogress nofree norecurse nosync nounwind sspstrong willreturn memory(read, inaccessiblemem: none) uwtable
define noundef zeroext i1 @_ZNK4FLAC8Metadata9Prototype11get_is_lastEv(ptr nocapture noundef nonnull readonly align 8 dereferenceable(17) %this) local_unnamed_addr #7 align 2 {
entry:
  %object_ = getelementptr inbounds i8, ptr %this, i64 8
  %0 = load ptr, ptr %object_, align 8
  %is_last = getelementptr inbounds i8, ptr %0, i64 4
  %1 = load i32, ptr %is_last, align 4
  %tobool = icmp ne i32 %1, 0
  ret i1 %tobool
}